; Function Attrs: mustprogress nofree norecurse nosync nounwind willreturn memory(argmem: readwrite) uwtable
define range(i64 -60, 1) i64 @ZSTD_CCtx_setPledgedSrcSize(ptr noundef captures(none) %0, i64 noundef %1) local_unnamed_addr #7 {
  %3 = getelementptr inbounds nuw i8, ptr %0, i64 3640
  %4 = load i32, ptr %3, align 8, !tbaa !81
  %.not = icmp eq i32 %4, 0
  br i1 %.not, label %5, label %8

5:                                                ; preds = %2
  %6 = add i64 %1, 1
  %7 = getelementptr inbounds nuw i8, ptr %0, i64 784
  store i64 %6, ptr %7, align 8, !tbaa !118
  br label %8

8:                                                ; preds = %2, %5
  %.0 = phi i64 [ 0, %5 ], [ -60, %2 ]
  ret i64 %.0
}